target datalayout = "e-m:e-p270:32:32-p271:32:32-p272:64:64-i64:64-i128:128-f80:128-n8:16:32:64-S128"
target triple = "x86_64-pc-linux-gnu"

@.str.52 = private unnamed_addr constant [63 x i8] c"src/hotspot/share/interpreter/templateInterpreterGenerator.cpp\00", align 1
@g_assert_poison = external global ptr, align 8
@.str.53 = private unnamed_addr constant [37 x i8] c"unexpected intrinsic method kind: %d\00", align 1

; Function Attrs: mustprogress nounwind uwtable
define hidden noundef ptr @_ZN28TemplateInterpreterGenerator24generate_intrinsic_entryEN19AbstractInterpreter10MethodKindE(ptr noundef nonnull align 8 dereferenceable(24) %0, i32 noundef %1) #1 align 2 {
  %3 = alloca ptr, align 8
  %4 = alloca ptr, align 8
  %5 = alloca i32, align 4
  %6 = alloca ptr, align 8
  store ptr %0, ptr %4, align 8
  store i32 %1, ptr %5, align 4
  %7 = load ptr, ptr %4, align 8
  %8 = load i32, ptr %5, align 4
  %9 = call noundef i32 @_ZN19AbstractInterpreter16method_intrinsicENS_10MethodKindE(i32 noundef %8)
  %10 = call noundef zeroext i1 @_ZN12vmIntrinsics22is_intrinsic_availableE13vmIntrinsicID(i32 noundef %9)
  br i1 %10, label %12, label %11

11:                                               ; preds = %2
  store ptr null, ptr %3, align 8
  br label %50

12:                                               ; preds = %2
  store ptr null, ptr %6, align 8
  %13 = load i32, ptr %5, align 4
  switch i32 %13, label %43 [
    i32 15, label %14
    i32 16, label %14
    i32 17, label %14
    i32 18, label %14
    i32 21, label %14
    i32 22, label %14
    i32 19, label %14
    i32 23, label %14
    i32 24, label %14
    i32 26, label %14
    i32 25, label %14
    i32 20, label %17
    i32 27, label %19
    i32 28, label %21
    i32 29, label %23
    i32 30, label %23
    i32 31, label %26
    i32 32, label %26
    i32 39, label %29
    i32 35, label %31
    i32 36, label %33
    i32 33, label %35
    i32 34, label %37
    i32 37, label %39
    i32 38, label %41
  ]

14:                                               ; preds = %12, %12, %12, %12, %12, %12, %12, %12, %12, %12, %12
  %15 = load i32, ptr %5, align 4
  %16 = call noundef ptr @_ZN28TemplateInterpreterGenerator19generate_math_entryEN19AbstractInterpreter10MethodKindE(ptr noundef nonnull align 8 dereferenceable(24) %7, i32 noundef %15)
  store ptr %16, ptr %6, align 8
  br label %48

17:                                               ; preds = %12
  %18 = call noundef ptr @_ZN28TemplateInterpreterGenerator19generate_math_entryEN19AbstractInterpreter10MethodKindE(ptr noundef nonnull align 8 dereferenceable(24) %7, i32 noundef 19)
  store ptr %18, ptr %6, align 8
  br label %48

19:                                               ; preds = %12
  %20 = call noundef ptr @_ZN28TemplateInterpreterGenerator28generate_Reference_get_entryEv(ptr noundef nonnull align 8 dereferenceable(24) %7)
  store ptr %20, ptr %6, align 8
  br label %48

21:                                               ; preds = %12
  %22 = call noundef ptr @_ZN28TemplateInterpreterGenerator27generate_CRC32_update_entryEv(ptr noundef nonnull align 8 dereferenceable(24) %7)
  store ptr %22, ptr %6, align 8
  br label %48

23:                                               ; preds = %12, %12
  %24 = load i32, ptr %5, align 4
  %25 = call noundef ptr @_ZN28TemplateInterpreterGenerator32generate_CRC32_updateBytes_entryEN19AbstractInterpreter10MethodKindE(ptr noundef nonnull align 8 dereferenceable(24) %7, i32 noundef %24)
  store ptr %25, ptr %6, align 8
  br label %48

26:                                               ; preds = %12, %12
  %27 = load i32, ptr %5, align 4
  %28 = call noundef ptr @_ZN28TemplateInterpreterGenerator33generate_CRC32C_updateBytes_entryEN19AbstractInterpreter10MethodKindE(ptr noundef nonnull align 8 dereferenceable(24) %7, i32 noundef %27)
  store ptr %28, ptr %6, align 8
  br label %48

29:                                               ; preds = %12
  %30 = call noundef ptr @_ZN28TemplateInterpreterGenerator22generate_currentThreadEv(ptr noundef nonnull align 8 dereferenceable(24) %7)
  store ptr %30, ptr %6, align 8
  br label %48

31:                                               ; preds = %12
  %32 = call noundef ptr @_ZN28TemplateInterpreterGenerator35generate_Float_float16ToFloat_entryEv(ptr noundef nonnull align 8 dereferenceable(24) %7)
  store ptr %32, ptr %6, align 8
  br label %48

33:                                               ; preds = %12
  %34 = call noundef ptr @_ZN28TemplateInterpreterGenerator35generate_Float_floatToFloat16_entryEv(ptr noundef nonnull align 8 dereferenceable(24) %7)
  store ptr %34, ptr %6, align 8
  br label %48

35:                                               ; preds = %12
  %36 = call noundef ptr @_ZN28TemplateInterpreterGenerator35generate_Float_intBitsToFloat_entryEv(ptr noundef nonnull align 8 dereferenceable(24) %7)
  store ptr %36, ptr %6, align 8
  br label %48

37:                                               ; preds = %12
  %38 = call noundef ptr @_ZN28TemplateInterpreterGenerator38generate_Float_floatToRawIntBits_entryEv(ptr noundef nonnull align 8 dereferenceable(24) %7)
  store ptr %38, ptr %6, align 8
  br label %48

39:                                               ; preds = %12
  %40 = call noundef ptr @_ZN28TemplateInterpreterGenerator38generate_Double_longBitsToDouble_entryEv(ptr noundef nonnull align 8 dereferenceable(24) %7)
  store ptr %40, ptr %6, align 8
  br label %48

41:                                               ; preds = %12
  %42 = call noundef ptr @_ZN28TemplateInterpreterGenerator41generate_Double_doubleToRawLongBits_entryEv(ptr noundef nonnull align 8 dereferenceable(24) %7)
  store ptr %42, ptr %6, align 8
  br label %48

43:                                               ; preds = %12
  br label %44

44:                                               ; preds = %43
  %45 = load ptr, ptr @g_assert_poison, align 8
  store i8 88, ptr %45, align 1
  %46 = load i32, ptr %5, align 4
  call void (i32, ptr, i32, ptr, ...) @_Z12report_fatal11VMErrorTypePKciS1_z(i32 noundef -536870912, ptr noundef @.str.52, i32 noundef 500, ptr noundef @.str.53, i32 noundef %46) #8
  unreachable

47:                                               ; No predecessors!
  br label %48

48:                                               ; preds = %47, %41, %39, %37, %35, %33, %31, %29, %26, %23, %21, %19, %17, %14
  %49 = load ptr, ptr %6, align 8
  store ptr %49, ptr %3, align 8
  br label %50

50:                                               ; preds = %48, %11
  %51 = load ptr, ptr %3, align 8
  ret ptr %51
}