; Function Attrs: mustprogress nounwind uwtable
define hidden noundef ptr @_ZN28TemplateInterpreterGenerator24generate_intrinsic_entryEN19AbstractInterpreter10MethodKindE(ptr noundef nonnull align 8 dereferenceable(24) %0, i32 noundef %1) local_unnamed_addr #0 align 2 {
  %3 = tail call noundef i32 @_ZN19AbstractInterpreter16method_intrinsicENS_10MethodKindE(i32 noundef %1) #7
  %4 = tail call noundef zeroext i1 @_ZN12vmIntrinsics22is_intrinsic_availableE13vmIntrinsicID(i32 noundef %3) #7
  br i1 %4, label %5, label %34

5:                                                ; preds = %2
  switch i32 %1, label %32 [
    i32 15, label %6
    i32 16, label %6
    i32 17, label %6
    i32 18, label %6
    i32 21, label %6
    i32 22, label %6
    i32 19, label %6
    i32 23, label %6
    i32 24, label %6
    i32 26, label %6
    i32 25, label %6
    i32 20, label %8
    i32 27, label %10
    i32 28, label %12
    i32 29, label %14
    i32 30, label %14
    i32 31, label %16
    i32 32, label %16
    i32 39, label %18
    i32 35, label %20
    i32 36, label %22
    i32 33, label %24
    i32 34, label %26
    i32 37, label %28
    i32 38, label %30
  ]

6:                                                ; preds = %5, %5, %5, %5, %5, %5, %5, %5, %5, %5, %5
  %7 = tail call noundef ptr @_ZN28TemplateInterpreterGenerator19generate_math_entryEN19AbstractInterpreter10MethodKindE(ptr noundef nonnull align 8 dereferenceable(24) %0, i32 noundef %1) #7
  br label %34

8:                                                ; preds = %5
  %9 = tail call noundef ptr @_ZN28TemplateInterpreterGenerator19generate_math_entryEN19AbstractInterpreter10MethodKindE(ptr noundef nonnull align 8 dereferenceable(24) %0, i32 noundef 19) #7
  br label %34

10:                                               ; preds = %5
  %11 = tail call noundef ptr @_ZN28TemplateInterpreterGenerator28generate_Reference_get_entryEv(ptr noundef nonnull align 8 dereferenceable(24) %0) #7
  br label %34

12:                                               ; preds = %5
  %13 = tail call noundef ptr @_ZN28TemplateInterpreterGenerator27generate_CRC32_update_entryEv(ptr noundef nonnull align 8 dereferenceable(24) %0) #7
  br label %34

14:                                               ; preds = %5, %5
  %15 = tail call noundef ptr @_ZN28TemplateInterpreterGenerator32generate_CRC32_updateBytes_entryEN19AbstractInterpreter10MethodKindE(ptr noundef nonnull align 8 dereferenceable(24) %0, i32 noundef %1) #7
  br label %34

16:                                               ; preds = %5, %5
  %17 = tail call noundef ptr @_ZN28TemplateInterpreterGenerator33generate_CRC32C_updateBytes_entryEN19AbstractInterpreter10MethodKindE(ptr noundef nonnull align 8 dereferenceable(24) %0, i32 noundef %1) #7
  br label %34

18:                                               ; preds = %5
  %19 = tail call noundef ptr @_ZN28TemplateInterpreterGenerator22generate_currentThreadEv(ptr noundef nonnull align 8 dereferenceable(24) %0) #7
  br label %34

20:                                               ; preds = %5
  %21 = tail call noundef ptr @_ZN28TemplateInterpreterGenerator35generate_Float_float16ToFloat_entryEv(ptr noundef nonnull align 8 dereferenceable(24) %0) #7
  br label %34

22:                                               ; preds = %5
  %23 = tail call noundef ptr @_ZN28TemplateInterpreterGenerator35generate_Float_floatToFloat16_entryEv(ptr noundef nonnull align 8 dereferenceable(24) %0) #7
  br label %34

24:                                               ; preds = %5
  %25 = tail call noundef ptr @_ZN28TemplateInterpreterGenerator35generate_Float_intBitsToFloat_entryEv(ptr noundef nonnull align 8 dereferenceable(24) %0) #7
  br label %34

26:                                               ; preds = %5
  %27 = tail call noundef ptr @_ZN28TemplateInterpreterGenerator38generate_Float_floatToRawIntBits_entryEv(ptr noundef nonnull align 8 dereferenceable(24) %0) #7
  br label %34

28:                                               ; preds = %5
  %29 = tail call noundef ptr @_ZN28TemplateInterpreterGenerator38generate_Double_longBitsToDouble_entryEv(ptr noundef nonnull align 8 dereferenceable(24) %0) #7
  br label %34

30:                                               ; preds = %5
  %31 = tail call noundef ptr @_ZN28TemplateInterpreterGenerator41generate_Double_doubleToRawLongBits_entryEv(ptr noundef nonnull align 8 dereferenceable(24) %0) #7
  br label %34

32:                                               ; preds = %5
  %33 = load ptr, ptr @g_assert_poison, align 8
  store i8 88, ptr %33, align 1
  tail call void (i32, ptr, i32, ptr, ...) @_Z12report_fatal11VMErrorTypePKciS1_z(i32 noundef -536870912, ptr noundef nonnull @.str.52, i32 noundef 500, ptr noundef nonnull @.str.53, i32 noundef %1) #8
  unreachable

34:                                               ; preds = %6, %8, %10, %12, %14, %16, %18, %20, %22, %24, %26, %28, %30, %2
  %.08 = phi ptr [ null, %2 ], [ %31, %30 ], [ %29, %28 ], [ %27, %26 ], [ %25, %24 ], [ %23, %22 ], [ %21, %20 ], [ %19, %18 ], [ %17, %16 ], [ %15, %14 ], [ %13, %12 ], [ %11, %10 ], [ %9, %8 ], [ %7, %6 ]
  ret ptr %.08
}